target datalayout = "e-m:e-p270:32:32-p271:32:32-p272:64:64-i64:64-i128:128-f80:128-n8:16:32:64-S128"
target triple = "x86_64-pc-linux-gnu"

%struct.TypeCacheEntry = type { i32, i32, i16, i8, i8, i8, i8, i32, i32, i32, i32, i32, i32, i32, i32, i32, i32, i32, i32, i32, i32, %struct.FmgrInfo, %struct.FmgrInfo, %struct.FmgrInfo, %struct.FmgrInfo, ptr, i64, ptr, i32, i32, %struct.FmgrInfo, %struct.FmgrInfo, %struct.FmgrInfo, ptr, i32, i32, ptr, i32, ptr, ptr }
%struct.FmgrInfo = type { ptr, i32, i16, i8, i8, i8, ptr, ptr, ptr }
%struct.RecordCacheArrayEntry = type { i64, ptr }

@.str.3 = private unnamed_addr constant [11 x i8] c"typcache.c\00", align 1
@.str.6 = private unnamed_addr constant [25 x i8] c"type %s is not composite\00", align 1
@RecordCacheArray = internal global ptr null, align 8
@tupledesc_id_counter = internal global i64 1, align 8
@__func__.assign_record_type_identifier = private unnamed_addr constant [30 x i8] c"assign_record_type_identifier\00", align 1
@RecordCacheArrayLen = internal global i32 0, align 4

; Function Attrs: nounwind uwtable
define dso_local i64 @assign_record_type_identifier(i32 noundef %0, i32 noundef %1) #0 {
  %3 = alloca i64, align 8
  %4 = alloca i32, align 4
  %5 = alloca i32, align 4
  %6 = alloca ptr, align 8
  store i32 %0, ptr %4, align 4
  store i32 %1, ptr %5, align 4
  %7 = load i32, ptr %4, align 4
  %8 = icmp ne i32 %7, 2249
  br i1 %8, label %9, label %34

9:                                                ; preds = %2
  call void @llvm.lifetime.start.p0(i64 8, ptr %6) #11
  %10 = load i32, ptr %4, align 4
  %11 = call ptr @lookup_type_cache(i32 noundef %10, i32 noundef 256)
  store ptr %11, ptr %6, align 8
  %12 = load ptr, ptr %6, align 8
  %13 = getelementptr inbounds nuw %struct.TypeCacheEntry, ptr %12, i32 0, i32 25
  %14 = load ptr, ptr %13, align 8
  %15 = icmp eq ptr %14, null
  br i1 %15, label %16, label %30

16:                                               ; preds = %9
  br label %17

17:                                               ; preds = %16
  br i1 true, label %18, label %20

18:                                               ; preds = %17
  %19 = call zeroext i1 @errstart_cold(i32 noundef 21, ptr noundef null) #12
  br i1 %19, label %22, label %27

20:                                               ; preds = %17
  %21 = call zeroext i1 @errstart(i32 noundef 21, ptr noundef null)
  br i1 %21, label %22, label %27

22:                                               ; preds = %20, %18
  %23 = call i32 @errcode(i32 noundef 151027844)
  %24 = load i32, ptr %4, align 4
  %25 = call ptr @format_type_be(i32 noundef %24)
  %26 = call i32 (ptr, ...) @errmsg(ptr noundef @.str.6, ptr noundef %25)
  call void @errfinish(ptr noundef @.str.3, i32 noundef 2146, ptr noundef @__func__.assign_record_type_identifier)
  br label %27

27:                                               ; preds = %22, %20, %18
  unreachable

28:                                               ; No predecessors!
  br label %29

29:                                               ; preds = %28
  br label %30

30:                                               ; preds = %29, %9
  %31 = load ptr, ptr %6, align 8
  %32 = getelementptr inbounds nuw %struct.TypeCacheEntry, ptr %31, i32 0, i32 26
  %33 = load i64, ptr %32, align 8
  store i64 %33, ptr %3, align 8
  call void @llvm.lifetime.end.p0(i64 8, ptr %6) #11
  br label %59

34:                                               ; preds = %2
  %35 = load i32, ptr %5, align 4
  %36 = icmp sge i32 %35, 0
  br i1 %36, label %37, label %56

37:                                               ; preds = %34
  %38 = load i32, ptr %5, align 4
  %39 = load i32, ptr @RecordCacheArrayLen, align 4
  %40 = icmp slt i32 %38, %39
  br i1 %40, label %41, label %56

41:                                               ; preds = %37
  %42 = load ptr, ptr @RecordCacheArray, align 8
  %43 = load i32, ptr %5, align 4
  %44 = sext i32 %43 to i64
  %45 = getelementptr inbounds %struct.RecordCacheArrayEntry, ptr %42, i64 %44
  %46 = getelementptr inbounds nuw %struct.RecordCacheArrayEntry, ptr %45, i32 0, i32 1
  %47 = load ptr, ptr %46, align 8
  %48 = icmp ne ptr %47, null
  br i1 %48, label %49, label %56

49:                                               ; preds = %41
  %50 = load ptr, ptr @RecordCacheArray, align 8
  %51 = load i32, ptr %5, align 4
  %52 = sext i32 %51 to i64
  %53 = getelementptr inbounds %struct.RecordCacheArrayEntry, ptr %50, i64 %52
  %54 = getelementptr inbounds nuw %struct.RecordCacheArrayEntry, ptr %53, i32 0, i32 0
  %55 = load i64, ptr %54, align 8
  store i64 %55, ptr %3, align 8
  br label %59

56:                                               ; preds = %41, %37, %34
  %57 = load i64, ptr @tupledesc_id_counter, align 8
  %58 = add i64 %57, 1
  store i64 %58, ptr @tupledesc_id_counter, align 8
  store i64 %58, ptr %3, align 8
  br label %59

59:                                               ; preds = %56, %49, %30
  %60 = load i64, ptr %3, align 8
  ret i64 %60
}