; Function Attrs: nounwind uwtable
define dso_local i64 @assign_record_type_identifier(i32 noundef %0, i32 noundef %1) local_unnamed_addr #0 {
  %.not = icmp eq i32 %0, 2249
  br i1 %.not, label %16, label %3

3:                                                ; preds = %2
  %4 = tail call ptr @lookup_type_cache(i32 noundef %0, i32 noundef 256)
  %5 = getelementptr inbounds nuw i8, ptr %4, i64 264
  %6 = load ptr, ptr %5, align 8
  %7 = icmp eq ptr %6, null
  br i1 %7, label %8, label %13

8:                                                ; preds = %3
  %9 = tail call zeroext i1 @errstart_cold(i32 noundef 21, ptr noundef null) #17
  tail call void @llvm.assume(i1 %9)
  %10 = tail call i32 @errcode(i32 noundef 151027844) #16
  %11 = tail call ptr @format_type_be(i32 noundef %0) #16
  %12 = tail call i32 (ptr, ...) @errmsg(ptr noundef nonnull @.str.6, ptr noundef %11) #16
  tail call void @errfinish(ptr noundef nonnull @.str.3, i32 noundef 2146, ptr noundef nonnull @__func__.assign_record_type_identifier) #16
  unreachable

13:                                               ; preds = %3
  %14 = getelementptr inbounds nuw i8, ptr %4, i64 272
  %15 = load i64, ptr %14, align 8
  br label %31

16:                                               ; preds = %2
  %17 = icmp sgt i32 %1, -1
  %18 = load i32, ptr @RecordCacheArrayLen, align 4
  %19 = icmp slt i32 %1, %18
  %or.cond = select i1 %17, i1 %19, i1 false
  br i1 %or.cond, label %20, label %28

20:                                               ; preds = %16
  %21 = load ptr, ptr @RecordCacheArray, align 8
  %22 = zext nneg i32 %1 to i64
  %23 = getelementptr inbounds nuw %struct.RecordCacheArrayEntry, ptr %21, i64 %22
  %24 = getelementptr inbounds nuw i8, ptr %23, i64 8
  %25 = load ptr, ptr %24, align 8
  %.not11 = icmp eq ptr %25, null
  br i1 %.not11, label %28, label %26

26:                                               ; preds = %20
  %27 = load i64, ptr %23, align 8
  br label %31

28:                                               ; preds = %20, %16
  %29 = load i64, ptr @tupledesc_id_counter, align 8
  %30 = add i64 %29, 1
  store i64 %30, ptr @tupledesc_id_counter, align 8
  br label %31

31:                                               ; preds = %28, %26, %13
  %.0 = phi i64 [ %15, %13 ], [ %27, %26 ], [ %30, %28 ]
  ret i64 %.0
}